Certificate:
    Data:
        Version: 3 (0x2)
        Serial Number: 18 (0x12)
    Signature Algorithm: sha256WithRSAEncryption
        Issuer: C=AU, ST=Some-State, O=Internet Widgits Pty Ltd, CN=tlstestapp-root
        Validity
            Not Before: Jul  9 10:00:33 2016 GMT
            Not After : Jul  9 10:00:33 2017 GMT
        Subject: C=AU, ST=Some-State, O=Internet Widgits Pty Ltd, CN=tlstestapp-client-1000
        Subject Public Key Info:
            Public Key Algorithm: rsaEncryption
                Public-Key: (2048 bit)
                Modulus:
                    00:dc:5d:e6:62:b8:e7:5e:54:aa:55:ac:99:47:30:
                    f2:89:6d:0b:84:6c:01:f3:72:85:29:d2:82:8f:9b:
                    dd:b9:18:00:45:d2:09:f3:af:e3:b4:fb:5f:2e:25:
                    11:6f:74:ec:e5:02:98:c7:99:e8:7e:77:53:0a:47:
                    f0:67:91:ca:7f:45:7b:cf:95:79:a7:22:4c:33:43:
                    6d:be:5d:0a:06:0f:ef:ac:e6:df:2a:b9:00:12:6f:
                    9e:05:04:2f:14:ec:54:f9:c4:fc:f6:c3:8a:41:a6:
                    05:81:53:c5:bc:33:6f:ea:d4:5f:d2:0d:36:34:80:
                    3a:a2:a1:73:bc:ea:82:db:cb:ea:61:b1:4e:f9:9a:
                    d1:3f:20:ea:2c:2b:9c:5f:8f:6a:a3:0f:47:d7:21:
                    d8:ad:54:30:90:b6:db:1a:5c:b0:c9:ba:e5:47:24:
                    32:80:1e:33:1a:30:22:52:3f:5c:ed:e9:0e:82:d4:
                    47:3a:99:3d:ca:7e:6a:e3:7e:80:ac:c5:65:6e:34:
                    ff:f5:03:99:36:a0:be:19:4a:e9:95:33:75:28:28:
                    5c:1d:05:c7:d1:06:ab:96:d4:0e:e8:ec:42:e3:0a:
                    f9:0c:eb:f6:7a:84:d9:35:99:9a:82:db:fe:29:33:
                    e7:3d:24:7e:84:72:c7:55:94:7b:da:88:58:56:f5:
                    77:e1
                Exponent: 65537 (0x10001)
        X509v3 extensions:
            X509v3 Basic Constraints: 
                CA:FALSE
            Netscape Comment: 
                OpenSSL Generated Certificate
            X509v3 Subject Key Identifier: 
                04:FB:C7:45:78:11:2E:E6:20:8E:A2:CA:35:E0:83:52:BE:8F:67:89
            X509v3 Authority Key Identifier: 
                keyid:A3:2A:6B:D3:1C:F7:B9:A5:6A:A4:2F:99:75:A2:C6:2C:55:9D:2F:99

    Signature Algorithm: sha256WithRSAEncryption
         af:ad:31:02:d4:56:f2:58:69:c2:69:ca:a5:41:c7:ba:23:88:
         d7:18:6f:18:3e:48:27:bd:4c:7b:32:36:89:7b:99:ad:88:19:
         23:a4:6e:57:b8:af:2c:8c:9b:8c:e7:66:5a:df:6a:bb:d2:60:
         d6:3a:87:2b:e0:ea:e6:7c:50:f9:15:63:96:2a:bb:e2:b1:e7:
         7f:51:4a:b9:65:a7:4b:2a:53:53:93:72:f4:f5:1a:af:00:f9:
         ec:2d:22:06:a2:7a:18:25:2f:a0:8b:0c:ab:6b:c5:13:6a:fd:
         c1:c6:8b:f7:91:53:4d:11:43:20:35:bc:2d:08:d7:49:25:ef:
         db:98:64:7c:77:02:b7:12:3f:c3:50:3f:13:1b:07:df:2b:29:
         4d:6c:33:d5:55:2e:c5:af:73:60:05:d9:05:d0:54:e6:7f:36:
         25:16:61:ab:71:96:f4:57:a4:69:59:18:5a:b4:fa:2f:7d:54:
         0d:56:58:98:31:6a:97:5b:c9:3f:80:06:71:44:8e:8e:51:f0:
         52:b0:6e:d6:7e:b8:cc:da:2c:df:37:d7:60:80:98:35:4c:61:
         70:b1:9a:81:fb:a8:02:a4:a0:3c:7c:ee:06:74:e7:b9:7f:92:
         b0:e3:21:17:20:31:09:14:5a:64:a1:eb:79:3e:14:05:c1:16:
         32:d8:2a:1f
-----BEGIN CERTIFICATE-----
MIIDuzCCAqOgAwIBAgIBEjANBgkqhkiG9w0BAQsFADBfMQswCQYDVQQGEwJBVTET
MBEGA1UECAwKU29tZS1TdGF0ZTEhMB8GA1UECgwYSW50ZXJuZXQgV2lkZ2l0cyBQ
dHkgTHRkMRgwFgYDVQQDDA90bHN0ZXN0YXBwLXJvb3QwHhcNMTYwNzA5MTAwMDMz
WhcNMTcwNzA5MTAwMDMzWjBmMQswCQYDVQQGEwJBVTETMBEGA1UECAwKU29tZS1T
dGF0ZTEhMB8GA1UECgwYSW50ZXJuZXQgV2lkZ2l0cyBQdHkgTHRkMR8wHQYDVQQD
DBZ0bHN0ZXN0YXBwLWNsaWVudC0xMDAwMIIBIjANBgkqhkiG9w0BAQEFAAOCAQ8A
MIIBCgKCAQEA3F3mYrjnXlSqVayZRzDyiW0LhGwB83KFKdKCj5vduRgARdIJ86/j
tPtfLiURb3Ts5QKYx5nofndTCkfwZ5HKf0V7z5V5pyJMM0Ntvl0KBg/vrObfKrkA
Em+eBQQvFOxU+cT89sOKQaYFgVPFvDNv6tRf0g02NIA6oqFzvOqC28vqYbFO+ZrR
PyDqLCucX49qow9H1yHYrVQwkLbbGlywybrlRyQygB4zGjAiUj9c7ekOgtRHOpk9
yn5q436ArMVlbjT/9QOZNqC+GUrplTN1KChcHQXH0QarltQO6OxC4wr5DOv2eoTZ
NZmagtv+KTPnPSR+hHLHVZR72ohYVvV34QIDAQABo3sweTAJBgNVHRMEAjAAMCwG
CWCGSAGG+EIBDQQfFh1PcGVuU1NMIEdlbmVyYXRlZCBDZXJ0aWZpY2F0ZTAdBgNV
HQ4EFgQUBPvHRXgRLuYgjqLKNeCDUr6PZ4kwHwYDVR0jBBgwFoAUoypr0xz3uaVq
pC+ZdaLGLFWdL5kwDQYJKoZIhvcNAQELBQADggEBAK+tMQLUVvJYacJpyqVBx7oj
iNcYbxg+SCe9THsyNol7ma2IGSOkble4ryyMm4znZlrfarvSYNY6hyvg6uZ8UPkV
Y5Yqu+Kx539RSrllp0sqU1OTcvT1Gq8A+ewtIgaiehglL6CLDKtrxRNq/cHGi/eR
U00RQyA1vC0I10kl79uYZHx3ArcSP8NQPxMbB98rKU1sM9VVLsWvc2AF2QXQVOZ/
NiUWYatxlvRXpGlZGFq0+i99VA1WWJgxapdbyT+ABnFEjo5R8FKwbtZ+uMzaLN83
12CAmDVMYXCxmoH7qAKkoDx87gZ057l/krDjIRcgMQkUWmSh63k+FAXBFjLYKh8=
-----END CERTIFICATE-----
