Certificate:
    Data:
        Version: 3 (0x2)
        Serial Number: 32 (0x20)
        Signature Algorithm: sha1WithRSAEncryption
        Issuer: C=AU, ST=Some-State, O=Internet Widgits Pty Ltd, CN=tlstestapp-root_fake_ca_for_test
        Validity
            Not Before: Jul 14 02:21:17 2016 GMT
            Not After : Jul 14 02:21:17 2017 GMT
        Subject: C=AU, ST=Some-State, O=Internet Widgits Pty Ltd, CN=tlstestapp-server
        Subject Public Key Info:
            Public Key Algorithm: rsaEncryption
            RSA Public Key: (2048 bit)
                Modulus (2048 bit):
                    00:c0:8a:95:fe:24:2d:62:b5:14:c1:1d:8a:a4:17:
                    39:92:7f:06:65:5f:a9:89:2a:83:c2:99:e6:b1:f4:
                    85:95:60:a3:6a:ed:10:a6:ca:34:28:90:cd:7c:13:
                    71:f4:33:b3:63:e2:88:d0:94:e3:38:5f:31:15:72:
                    f5:05:ca:4d:84:65:3b:69:3c:d3:41:53:33:81:a4:
                    b7:58:c4:1e:00:99:60:d3:24:a2:e5:80:23:cd:49:
                    81:45:a8:32:7f:f4:86:d3:f6:7f:4f:58:40:a2:ee:
                    d2:92:75:fb:05:c2:1f:b8:69:a6:3f:67:f0:b8:13:
                    6a:b2:db:7c:9a:73:aa:47:bc:3d:3a:4d:29:c4:92:
                    fa:92:92:b5:5a:90:49:db:8a:0f:ff:43:a4:0c:68:
                    7c:f8:80:e2:b9:c4:97:66:cc:39:0b:39:82:82:2c:
                    02:21:fa:d6:9b:d9:4b:d8:43:49:6d:b5:d3:f0:26:
                    a9:7f:9e:d3:ac:e4:8d:59:c5:ad:32:97:90:51:83:
                    2e:c0:cf:fd:2a:7d:04:af:ca:10:42:d2:42:cc:b7:
                    23:e0:16:65:a4:5b:92:09:97:64:38:50:01:bd:a0:
                    bc:65:79:1f:4c:bb:7b:1b:d8:67:32:aa:35:03:1d:
                    f5:8c:49:f0:7c:fe:af:a8:41:97:01:f7:59:d1:b0:
                    14:93
                Exponent: 65537 (0x10001)
        X509v3 extensions:
            X509v3 Basic Constraints: 
                CA:FALSE
            Netscape Comment: 
                OpenSSL Generated Certificate
            X509v3 Subject Key Identifier: 
                1A:8E:C1:DE:2D:93:3F:C4:64:36:55:52:68:8C:3C:05:6A:FD:DA:89
            X509v3 Authority Key Identifier: 
                keyid:22:46:2B:BD:7D:75:C2:4C:6E:A3:1D:45:5E:DE:5F:3C:F5:08:C0:FB

    Signature Algorithm: sha1WithRSAEncryption
        23:81:ef:dc:fd:48:e4:53:95:08:df:e0:0e:86:84:cf:7b:a8:
        b8:22:7c:04:6e:d4:1f:35:0f:ad:bf:7a:25:6e:87:e0:fc:2c:
        82:69:3d:35:fb:77:bc:ac:11:64:10:35:80:97:b3:ac:1c:8a:
        02:05:f0:24:47:20:8a:49:02:d0:a1:4d:d4:1a:0a:c6:43:16:
        d1:9b:38:40:16:d7:19:67:e1:bb:a7:87:ec:26:55:c9:6a:6a:
        51:c0:b7:74:03:7e:6c:a2:60:1f:98:6a:e2:d0:10:c1:40:a2:
        79:77:96:9e:d4:27:c7:0e:b6:cd:b7:88:f1:fc:00:08:04:2f:
        8b:b4:d4:f3:77:08:d8:da:28:1c:10:83:ee:a3:fc:68:61:94:
        54:41:b9:c6:f2:d8:75:ed:11:1b:f1:65:84:7e:5d:ec:c2:56:
        8b:fe:9f:09:7c:85:bb:0a:7b:1c:a9:0f:99:7c:01:87:03:8f:
        b9:44:bb:bf:e1:79:78:f6:05:dc:a3:93:fe:30:c0:02:25:69:
        9e:a1:de:e3:4c:09:07:db:9f:4a:2c:a5:8b:8b:4b:dd:ff:7c:
        06:a5:fb:66:c2:98:c5:78:b2:e8:0b:6f:cf:ae:f1:80:bf:c7:
        73:42:5c:ea:cd:14:c1:39:02:ae:bc:db:3f:5b:d3:70:24:64:
        18:e1:9a:8a
-----BEGIN CERTIFICATE-----
MIIDxzCCAq+gAwIBAgIBIDANBgkqhkiG9w0BAQUFADBwMQswCQYDVQQGEwJBVTET
MBEGA1UECAwKU29tZS1TdGF0ZTEhMB8GA1UECgwYSW50ZXJuZXQgV2lkZ2l0cyBQ
dHkgTHRkMSkwJwYDVQQDDCB0bHN0ZXN0YXBwLXJvb3RfZmFrZV9jYV9mb3JfdGVz
dDAeFw0xNjA3MTQwMjIxMTdaFw0xNzA3MTQwMjIxMTdaMGExCzAJBgNVBAYTAkFV
MRMwEQYDVQQIDApTb21lLVN0YXRlMSEwHwYDVQQKDBhJbnRlcm5ldCBXaWRnaXRz
IFB0eSBMdGQxGjAYBgNVBAMMEXRsc3Rlc3RhcHAtc2VydmVyMIIBIjANBgkqhkiG
9w0BAQEFAAOCAQ8AMIIBCgKCAQEAwIqV/iQtYrUUwR2KpBc5kn8GZV+piSqDwpnm
sfSFlWCjau0Qpso0KJDNfBNx9DOzY+KI0JTjOF8xFXL1BcpNhGU7aTzTQVMzgaS3
WMQeAJlg0ySi5YAjzUmBRagyf/SG0/Z/T1hAou7SknX7BcIfuGmmP2fwuBNqstt8
mnOqR7w9Ok0pxJL6kpK1WpBJ24oP/0OkDGh8+IDiucSXZsw5CzmCgiwCIfrWm9lL
2ENJbbXT8Capf57TrOSNWcWtMpeQUYMuwM/9Kn0Er8oQQtJCzLcj4BZlpFuSCZdk
OFABvaC8ZXkfTLt7G9hnMqo1Ax31jEnwfP6vqEGXAfdZ0bAUkwIDAQABo3sweTAJ
BgNVHRMEAjAAMCwGCWCGSAGG+EIBDQQfFh1PcGVuU1NMIEdlbmVyYXRlZCBDZXJ0
aWZpY2F0ZTAdBgNVHQ4EFgQUGo7B3i2TP8RkNlVSaIw8BWr92okwHwYDVR0jBBgw
FoAUIkYrvX11wkxuox1FXt5fPPUIwPswDQYJKoZIhvcNAQEFBQADggEBACOB79z9
SORTlQjf4A6GhM97qLgifARu1B81D62/eiVuh+D8LIJpPTX7d7ysEWQQNYCXs6wc
igIF8CRHIIpJAtChTdQaCsZDFtGbOEAW1xln4bunh+wmVclqalHAt3QDfmyiYB+Y
auLQEMFAonl3lp7UJ8cOts23iPH8AAgEL4u01PN3CNjaKBwQg+6j/GhhlFRBucby
2HXtERvxZYR+XezCVov+nwl8hbsKexypD5l8AYcDj7lEu7/heXj2Bdyjk/4wwAIl
aZ6h3uNMCQfbn0ospYuLS93/fAal+2bCmMV4sugLb8+u8YC/x3NCXOrNFME5Aq68
2z9b03AkZBjhmoo=
-----END CERTIFICATE-----
