Certificate:
    Data:
        Version: 3 (0x2)
        Serial Number: 17 (0x11)
    Signature Algorithm: sha256WithRSAEncryption
        Issuer: C=AU, ST=Some-State, O=Internet Widgits Pty Ltd, CN=tlstestapp-root
        Validity
            Not Before: Jul  9 09:59:24 2016 GMT
            Not After : Jul  9 09:59:24 2017 GMT
        Subject: C=AU, ST=Some-State, O=Internet Widgits Pty Ltd, CN=tlstestapp-server
        Subject Public Key Info:
            Public Key Algorithm: rsaEncryption
                Public-Key: (2048 bit)
                Modulus:
                    00:c0:8a:95:fe:24:2d:62:b5:14:c1:1d:8a:a4:17:
                    39:92:7f:06:65:5f:a9:89:2a:83:c2:99:e6:b1:f4:
                    85:95:60:a3:6a:ed:10:a6:ca:34:28:90:cd:7c:13:
                    71:f4:33:b3:63:e2:88:d0:94:e3:38:5f:31:15:72:
                    f5:05:ca:4d:84:65:3b:69:3c:d3:41:53:33:81:a4:
                    b7:58:c4:1e:00:99:60:d3:24:a2:e5:80:23:cd:49:
                    81:45:a8:32:7f:f4:86:d3:f6:7f:4f:58:40:a2:ee:
                    d2:92:75:fb:05:c2:1f:b8:69:a6:3f:67:f0:b8:13:
                    6a:b2:db:7c:9a:73:aa:47:bc:3d:3a:4d:29:c4:92:
                    fa:92:92:b5:5a:90:49:db:8a:0f:ff:43:a4:0c:68:
                    7c:f8:80:e2:b9:c4:97:66:cc:39:0b:39:82:82:2c:
                    02:21:fa:d6:9b:d9:4b:d8:43:49:6d:b5:d3:f0:26:
                    a9:7f:9e:d3:ac:e4:8d:59:c5:ad:32:97:90:51:83:
                    2e:c0:cf:fd:2a:7d:04:af:ca:10:42:d2:42:cc:b7:
                    23:e0:16:65:a4:5b:92:09:97:64:38:50:01:bd:a0:
                    bc:65:79:1f:4c:bb:7b:1b:d8:67:32:aa:35:03:1d:
                    f5:8c:49:f0:7c:fe:af:a8:41:97:01:f7:59:d1:b0:
                    14:93
                Exponent: 65537 (0x10001)
        X509v3 extensions:
            X509v3 Basic Constraints: 
                CA:FALSE
            Netscape Comment: 
                OpenSSL Generated Certificate
            X509v3 Subject Key Identifier: 
                1A:8E:C1:DE:2D:93:3F:C4:64:36:55:52:68:8C:3C:05:6A:FD:DA:89
            X509v3 Authority Key Identifier: 
                keyid:A3:2A:6B:D3:1C:F7:B9:A5:6A:A4:2F:99:75:A2:C6:2C:55:9D:2F:99

    Signature Algorithm: sha256WithRSAEncryption
         34:c3:e1:b9:d3:fc:c3:c6:20:f4:f7:a4:15:aa:43:cc:70:a4:
         31:55:58:f0:17:48:a0:6c:41:aa:06:f8:64:5e:30:9b:02:d6:
         46:92:d7:c4:ac:31:15:5f:4e:31:1b:7f:6a:ef:68:06:68:b0:
         00:6a:ae:7f:5f:9b:5a:f5:4a:62:50:13:df:ee:b2:e0:5a:ac:
         f9:88:64:8f:31:77:7d:96:23:3f:58:76:4e:46:03:66:0f:b3:
         7a:0f:8a:de:d7:53:bf:81:21:ef:52:d0:ab:bf:30:ac:3a:41:
         27:00:3c:c4:56:f8:54:fe:27:9b:3c:db:62:63:50:c8:42:58:
         e8:e6:2b:84:27:0c:21:a3:d8:00:ae:5f:ba:87:c8:80:8a:c9:
         96:17:35:fe:ca:ee:23:4d:0a:90:03:04:cf:8b:7b:2f:15:24:
         84:49:d5:ad:78:11:82:d2:fb:c8:1e:73:d5:9b:db:48:7d:12:
         c1:a5:ae:0b:19:81:f5:d2:98:ba:a2:4b:e6:16:79:a7:1e:0d:
         82:e8:90:d8:b8:af:28:2f:f4:d1:b0:20:28:bb:85:c4:14:a9:
         09:a5:30:9e:85:fe:e1:e5:22:42:bb:65:cc:fe:11:a6:d7:8e:
         d9:76:12:93:62:10:5a:8c:24:76:20:72:d9:15:18:c0:1c:6d:
         15:12:06:57
-----BEGIN CERTIFICATE-----
MIIDtjCCAp6gAwIBAgIBETANBgkqhkiG9w0BAQsFADBfMQswCQYDVQQGEwJBVTET
MBEGA1UECAwKU29tZS1TdGF0ZTEhMB8GA1UECgwYSW50ZXJuZXQgV2lkZ2l0cyBQ
dHkgTHRkMRgwFgYDVQQDDA90bHN0ZXN0YXBwLXJvb3QwHhcNMTYwNzA5MDk1OTI0
WhcNMTcwNzA5MDk1OTI0WjBhMQswCQYDVQQGEwJBVTETMBEGA1UECAwKU29tZS1T
dGF0ZTEhMB8GA1UECgwYSW50ZXJuZXQgV2lkZ2l0cyBQdHkgTHRkMRowGAYDVQQD
DBF0bHN0ZXN0YXBwLXNlcnZlcjCCASIwDQYJKoZIhvcNAQEBBQADggEPADCCAQoC
ggEBAMCKlf4kLWK1FMEdiqQXOZJ/BmVfqYkqg8KZ5rH0hZVgo2rtEKbKNCiQzXwT
cfQzs2PiiNCU4zhfMRVy9QXKTYRlO2k800FTM4Gkt1jEHgCZYNMkouWAI81JgUWo
Mn/0htP2f09YQKLu0pJ1+wXCH7hppj9n8LgTarLbfJpzqke8PTpNKcSS+pKStVqQ
SduKD/9DpAxofPiA4rnEl2bMOQs5goIsAiH61pvZS9hDSW210/AmqX+e06zkjVnF
rTKXkFGDLsDP/Sp9BK/KEELSQsy3I+AWZaRbkgmXZDhQAb2gvGV5H0y7exvYZzKq
NQMd9YxJ8Hz+r6hBlwH3WdGwFJMCAwEAAaN7MHkwCQYDVR0TBAIwADAsBglghkgB
hvhCAQ0EHxYdT3BlblNTTCBHZW5lcmF0ZWQgQ2VydGlmaWNhdGUwHQYDVR0OBBYE
FBqOwd4tkz/EZDZVUmiMPAVq/dqJMB8GA1UdIwQYMBaAFKMqa9Mc97mlaqQvmXWi
xixVnS+ZMA0GCSqGSIb3DQEBCwUAA4IBAQA0w+G50/zDxiD096QVqkPMcKQxVVjw
F0igbEGqBvhkXjCbAtZGktfErDEVX04xG39q72gGaLAAaq5/X5ta9UpiUBPf7rLg
Wqz5iGSPMXd9liM/WHZORgNmD7N6D4re11O/gSHvUtCrvzCsOkEnADzEVvhU/ieb
PNtiY1DIQljo5iuEJwwho9gArl+6h8iAismWFzX+yu4jTQqQAwTPi3svFSSESdWt
eBGC0vvIHnPVm9tIfRLBpa4LGYH10pi6okvmFnmnHg2C6JDYuK8oL/TRsCAou4XE
FKkJpTCehf7h5SJCu2XM/hGm147ZdhKTYhBajCR2IHLZFRjAHG0VEgZX
-----END CERTIFICATE-----
